target datalayout = "e-m:e-p270:32:32-p271:32:32-p272:64:64-i64:64-i128:128-f80:128-n8:16:32:64-S128"
target triple = "x86_64-pc-linux-gnu"

%struct.LodePNGColorMode = type { i32, i32, ptr, i64, i32, i32, i32, i32 }
%struct.LodePNGInfo = type { i32, i32, i32, %struct.LodePNGColorMode, i32, i32, i32, i32, i64, ptr, ptr, i64, ptr, ptr, ptr, ptr, i32, ptr, i32, i32, %struct.LodePNGTime, i32, i32, i32, i32, i32, i32, i32, i32, i32, i32, i32, i32, i32, i32, i32, i32, i32, i32, ptr, ptr, i32, i32, i32, i32, i32, i32, i32, i32, i32, i32, i32, i32, i32, i32, i32, i32, i32, i32, i32, i32, i32, i32, i32, i32, i32, [3 x ptr], [3 x i64] }
%struct.LodePNGTime = type { i32, i32, i32, i32, i32, i32 }

; Function Attrs: mustprogress nounwind uwtable
define internal noundef ptr @_ZL18alloc_string_sizedPKcm(ptr noundef %0, i64 noundef %1) #3 {
  %3 = alloca ptr, align 8
  %4 = alloca i64, align 8
  %5 = alloca ptr, align 8
  store ptr %0, ptr %3, align 8, !tbaa !11
  store i64 %1, ptr %4, align 8, !tbaa !17
  call void @llvm.lifetime.start.p0(i64 8, ptr %5) #17
  %6 = load i64, ptr %4, align 8, !tbaa !17
  %7 = add i64 %6, 1
  %8 = call noundef ptr @_ZL14lodepng_mallocm(i64 noundef %7)
  store ptr %8, ptr %5, align 8, !tbaa !11
  %9 = load ptr, ptr %5, align 8, !tbaa !11
  %10 = icmp ne ptr %9, null
  br i1 %10, label %11, label %18

11:                                               ; preds = %2
  %12 = load ptr, ptr %5, align 8, !tbaa !11
  %13 = load ptr, ptr %3, align 8, !tbaa !11
  %14 = load i64, ptr %4, align 8, !tbaa !17
  call void @_ZL14lodepng_memcpyPvPKvm(ptr noundef %12, ptr noundef %13, i64 noundef %14)
  %15 = load ptr, ptr %5, align 8, !tbaa !11
  %16 = load i64, ptr %4, align 8, !tbaa !17
  %17 = getelementptr inbounds nuw i8, ptr %15, i64 %16
  store i8 0, ptr %17, align 1, !tbaa !45
  br label %18

18:                                               ; preds = %11, %2
  %19 = load ptr, ptr %5, align 8, !tbaa !11
  call void @llvm.lifetime.end.p0(i64 8, ptr %5) #17
  ret ptr %19
}

; Function Attrs: mustprogress nounwind uwtable
define internal noundef i64 @_ZL14lodepng_strlenPKc(ptr noundef %0) #3 {
  %2 = alloca ptr, align 8
  %3 = alloca ptr, align 8
  store ptr %0, ptr %2, align 8, !tbaa !11
  call void @llvm.lifetime.start.p0(i64 8, ptr %3) #17
  %4 = load ptr, ptr %2, align 8, !tbaa !11
  store ptr %4, ptr %3, align 8, !tbaa !11
  br label %5

5:                                                ; preds = %9, %1
  %6 = load ptr, ptr %2, align 8, !tbaa !11
  %7 = load i8, ptr %6, align 1, !tbaa !45
  %8 = icmp ne i8 %7, 0
  br i1 %8, label %9, label %12

9:                                                ; preds = %5
  %10 = load ptr, ptr %2, align 8, !tbaa !11
  %11 = getelementptr inbounds nuw i8, ptr %10, i32 1
  store ptr %11, ptr %2, align 8, !tbaa !11
  br label %5, !llvm.loop !95

12:                                               ; preds = %5
  %13 = load ptr, ptr %2, align 8, !tbaa !11
  %14 = load ptr, ptr %3, align 8, !tbaa !11
  %15 = ptrtoint ptr %13 to i64
  %16 = ptrtoint ptr %14 to i64
  %17 = sub i64 %15, %16
  call void @llvm.lifetime.end.p0(i64 8, ptr %3) #17
  ret i64 %17
}

; Function Attrs: mustprogress nounwind uwtable
define internal void @_ZL14string_cleanupPPc(ptr noundef %0) #3 {
  %2 = alloca ptr, align 8
  store ptr %0, ptr %2, align 8, !tbaa !3
  %3 = load ptr, ptr %2, align 8, !tbaa !3
  %4 = load ptr, ptr %3, align 8, !tbaa !11
  call void @_ZL12lodepng_freePv(ptr noundef %4)
  %5 = load ptr, ptr %2, align 8, !tbaa !3
  store ptr null, ptr %5, align 8, !tbaa !11
  ret void
}

; Function Attrs: mustprogress nounwind uwtable
define internal void @_ZL14lodepng_memcpyPvPKvm(ptr noalias noundef %0, ptr noalias noundef %1, i64 noundef %2) #3 {
  %4 = alloca ptr, align 8
  %5 = alloca ptr, align 8
  %6 = alloca i64, align 8
  %7 = alloca i64, align 8
  store ptr %0, ptr %4, align 8, !tbaa !44
  store ptr %1, ptr %5, align 8, !tbaa !44
  store i64 %2, ptr %6, align 8, !tbaa !17
  call void @llvm.lifetime.start.p0(i64 8, ptr %7) #17
  store i64 0, ptr %7, align 8, !tbaa !17
  br label %8

8:                                                ; preds = %20, %3
  %9 = load i64, ptr %7, align 8, !tbaa !17
  %10 = load i64, ptr %6, align 8, !tbaa !17
  %11 = icmp ult i64 %9, %10
  br i1 %11, label %12, label %23

12:                                               ; preds = %8
  %13 = load ptr, ptr %5, align 8, !tbaa !44
  %14 = load i64, ptr %7, align 8, !tbaa !17
  %15 = getelementptr inbounds nuw i8, ptr %13, i64 %14
  %16 = load i8, ptr %15, align 1, !tbaa !45
  %17 = load ptr, ptr %4, align 8, !tbaa !44
  %18 = load i64, ptr %7, align 8, !tbaa !17
  %19 = getelementptr inbounds nuw i8, ptr %17, i64 %18
  store i8 %16, ptr %19, align 1, !tbaa !45
  br label %20

20:                                               ; preds = %12
  %21 = load i64, ptr %7, align 8, !tbaa !17
  %22 = add i64 %21, 1
  store i64 %22, ptr %7, align 8, !tbaa !17
  br label %8, !llvm.loop !112

23:                                               ; preds = %8
  call void @llvm.lifetime.end.p0(i64 8, ptr %7) #17
  ret void
}

; Function Attrs: mustprogress nounwind uwtable
define internal void @_ZL12lodepng_freePv(ptr noundef %0) #3 {
  %2 = alloca ptr, align 8
  store ptr %0, ptr %2, align 8, !tbaa !44
  %3 = load ptr, ptr %2, align 8, !tbaa !44
  call void @free(ptr noundef %3) #17
  ret void
}

; Function Attrs: mustprogress nounwind uwtable
define internal noundef ptr @_ZL14lodepng_mallocm(i64 noundef %0) #3 {
  %2 = alloca i64, align 8
  store i64 %0, ptr %2, align 8, !tbaa !17
  %3 = load i64, ptr %2, align 8, !tbaa !17
  %4 = call noalias ptr @malloc(i64 noundef %3) #18
  ret ptr %4
}

; Function Attrs: mustprogress nounwind uwtable
define internal noundef ptr @_ZL12alloc_stringPKc(ptr noundef %0) #3 {
  %2 = alloca ptr, align 8
  store ptr %0, ptr %2, align 8, !tbaa !11
  %3 = load ptr, ptr %2, align 8, !tbaa !11
  %4 = load ptr, ptr %2, align 8, !tbaa !11
  %5 = call noundef i64 @_ZL14lodepng_strlenPKc(ptr noundef %4)
  %6 = call noundef ptr @_ZL18alloc_string_sizedPKcm(ptr noundef %3, i64 noundef %5)
  ret ptr %6
}

; Function Attrs: mustprogress uwtable
define void @_Z17lodepng_clear_iccP11LodePNGInfo(ptr noundef %0) #0 {
  %2 = alloca ptr, align 8
  store ptr %0, ptr %2, align 8, !tbaa !116
  %3 = load ptr, ptr %2, align 8, !tbaa !116
  %4 = getelementptr inbounds nuw %struct.LodePNGInfo, ptr %3, i32 0, i32 39
  call void @_ZL14string_cleanupPPc(ptr noundef %4)
  %5 = load ptr, ptr %2, align 8, !tbaa !116
  %6 = getelementptr inbounds nuw %struct.LodePNGInfo, ptr %5, i32 0, i32 40
  %7 = load ptr, ptr %6, align 8, !tbaa !132
  call void @_ZL12lodepng_freePv(ptr noundef %7)
  %8 = load ptr, ptr %2, align 8, !tbaa !116
  %9 = getelementptr inbounds nuw %struct.LodePNGInfo, ptr %8, i32 0, i32 40
  store ptr null, ptr %9, align 8, !tbaa !132
  %10 = load ptr, ptr %2, align 8, !tbaa !116
  %11 = getelementptr inbounds nuw %struct.LodePNGInfo, ptr %10, i32 0, i32 41
  store i32 0, ptr %11, align 8, !tbaa !133
  %12 = load ptr, ptr %2, align 8, !tbaa !116
  %13 = getelementptr inbounds nuw %struct.LodePNGInfo, ptr %12, i32 0, i32 38
  store i32 0, ptr %13, align 4, !tbaa !130
  ret void
}

; Function Attrs: mustprogress uwtable
define noundef i32 @_Z15lodepng_set_iccP11LodePNGInfoPKcPKhj(ptr noundef %0, ptr noundef %1, ptr noundef %2, i32 noundef %3) #0 {
  %5 = alloca i32, align 4
  %6 = alloca ptr, align 8
  %7 = alloca ptr, align 8
  %8 = alloca ptr, align 8
  %9 = alloca i32, align 4
  store ptr %0, ptr %6, align 8, !tbaa !116
  store ptr %1, ptr %7, align 8, !tbaa !11
  store ptr %2, ptr %8, align 8, !tbaa !11
  store i32 %3, ptr %9, align 4, !tbaa !15
  %10 = load ptr, ptr %6, align 8, !tbaa !116
  %11 = getelementptr inbounds nuw %struct.LodePNGInfo, ptr %10, i32 0, i32 38
  %12 = load i32, ptr %11, align 4, !tbaa !130
  %13 = icmp ne i32 %12, 0
  br i1 %13, label %14, label %16

14:                                               ; preds = %4
  %15 = load ptr, ptr %6, align 8, !tbaa !116
  call void @_Z17lodepng_clear_iccP11LodePNGInfo(ptr noundef %15)
  br label %16

16:                                               ; preds = %14, %4
  %17 = load i32, ptr %9, align 4, !tbaa !15
  %18 = icmp eq i32 %17, 0
  br i1 %18, label %19, label %20

19:                                               ; preds = %16
  store i32 100, ptr %5, align 4
  br label %56

20:                                               ; preds = %16
  %21 = load ptr, ptr %7, align 8, !tbaa !11
  %22 = call noundef ptr @_ZL12alloc_stringPKc(ptr noundef %21)
  %23 = load ptr, ptr %6, align 8, !tbaa !116
  %24 = getelementptr inbounds nuw %struct.LodePNGInfo, ptr %23, i32 0, i32 39
  store ptr %22, ptr %24, align 8, !tbaa !131
  %25 = load ptr, ptr %6, align 8, !tbaa !116
  %26 = getelementptr inbounds nuw %struct.LodePNGInfo, ptr %25, i32 0, i32 39
  %27 = load ptr, ptr %26, align 8, !tbaa !131
  %28 = icmp ne ptr %27, null
  br i1 %28, label %30, label %29

29:                                               ; preds = %20
  store i32 83, ptr %5, align 4
  br label %56

30:                                               ; preds = %20
  %31 = load i32, ptr %9, align 4, !tbaa !15
  %32 = zext i32 %31 to i64
  %33 = call noundef ptr @_ZL14lodepng_mallocm(i64 noundef %32)
  %34 = load ptr, ptr %6, align 8, !tbaa !116
  %35 = getelementptr inbounds nuw %struct.LodePNGInfo, ptr %34, i32 0, i32 40
  store ptr %33, ptr %35, align 8, !tbaa !132
  %36 = load ptr, ptr %6, align 8, !tbaa !116
  %37 = getelementptr inbounds nuw %struct.LodePNGInfo, ptr %36, i32 0, i32 40
  %38 = load ptr, ptr %37, align 8, !tbaa !132
  %39 = icmp ne ptr %38, null
  br i1 %39, label %44, label %40

40:                                               ; preds = %30
  %41 = load ptr, ptr %6, align 8, !tbaa !116
  %42 = getelementptr inbounds nuw %struct.LodePNGInfo, ptr %41, i32 0, i32 39
  %43 = load ptr, ptr %42, align 8, !tbaa !131
  call void @_ZL12lodepng_freePv(ptr noundef %43)
  store i32 83, ptr %5, align 4
  br label %56

44:                                               ; preds = %30
  %45 = load ptr, ptr %6, align 8, !tbaa !116
  %46 = getelementptr inbounds nuw %struct.LodePNGInfo, ptr %45, i32 0, i32 40
  %47 = load ptr, ptr %46, align 8, !tbaa !132
  %48 = load ptr, ptr %8, align 8, !tbaa !11
  %49 = load i32, ptr %9, align 4, !tbaa !15
  %50 = zext i32 %49 to i64
  call void @_ZL14lodepng_memcpyPvPKvm(ptr noundef %47, ptr noundef %48, i64 noundef %50)
  %51 = load i32, ptr %9, align 4, !tbaa !15
  %52 = load ptr, ptr %6, align 8, !tbaa !116
  %53 = getelementptr inbounds nuw %struct.LodePNGInfo, ptr %52, i32 0, i32 41
  store i32 %51, ptr %53, align 8, !tbaa !133
  %54 = load ptr, ptr %6, align 8, !tbaa !116
  %55 = getelementptr inbounds nuw %struct.LodePNGInfo, ptr %54, i32 0, i32 38
  store i32 1, ptr %55, align 4, !tbaa !130
  store i32 0, ptr %5, align 4
  br label %56

56:                                               ; preds = %44, %40, %29, %19
  %57 = load i32, ptr %5, align 4
  ret i32 %57
}