; Function Attrs: mustprogress nounwind uwtable
define noundef range(i32 0, 101) i32 @_Z15lodepng_set_iccP11LodePNGInfoPKcPKhj(ptr noundef captures(none) %0, ptr noundef %1, ptr noundef readonly captures(none) %2, i32 noundef %3) local_unnamed_addr #3 {
  %5 = getelementptr inbounds nuw i8, ptr %0, i64 252
  %6 = load i32, ptr %5, align 4, !tbaa !237
  %.not = icmp eq i32 %6, 0
  br i1 %.not, label %13, label %7

7:                                                ; preds = %4
  %8 = getelementptr inbounds nuw i8, ptr %0, i64 256
  %9 = load ptr, ptr %8, align 8, !tbaa !7
  tail call void @free(ptr noundef %9) #28
  store ptr null, ptr %8, align 8, !tbaa !7
  %10 = getelementptr inbounds nuw i8, ptr %0, i64 264
  %11 = load ptr, ptr %10, align 8, !tbaa !238
  tail call void @free(ptr noundef %11) #28
  store ptr null, ptr %10, align 8, !tbaa !238
  %12 = getelementptr inbounds nuw i8, ptr %0, i64 272
  store i32 0, ptr %12, align 8, !tbaa !239
  store i32 0, ptr %5, align 4, !tbaa !237
  br label %13

13:                                               ; preds = %7, %4
  %14 = icmp eq i32 %3, 0
  br i1 %14, label %32, label %.preheader

.preheader:                                       ; preds = %13, %.preheader
  %.0.i.i = phi ptr [ %16, %.preheader ], [ %1, %13 ]
  %15 = load i8, ptr %.0.i.i, align 1, !tbaa !18
  %.not.i.i = icmp eq i8 %15, 0
  %16 = getelementptr inbounds nuw i8, ptr %.0.i.i, i64 1
  br i1 %.not.i.i, label %_ZL14lodepng_strlenPKc.exit.i, label %.preheader, !llvm.loop !170

_ZL14lodepng_strlenPKc.exit.i:                    ; preds = %.preheader
  %17 = ptrtoint ptr %.0.i.i to i64
  %18 = ptrtoint ptr %1 to i64
  %19 = sub i64 %17, %18
  %20 = add i64 %19, 1
  %21 = tail call noalias noundef ptr @malloc(i64 noundef %20) #27
  %.not.i2.i = icmp eq ptr %21, null
  br i1 %.not.i2.i, label %_ZL12alloc_stringPKc.exit.thread, label %23

_ZL12alloc_stringPKc.exit.thread:                 ; preds = %_ZL14lodepng_strlenPKc.exit.i
  %22 = getelementptr inbounds nuw i8, ptr %0, i64 256
  store ptr null, ptr %22, align 8, !tbaa !240
  br label %32

23:                                               ; preds = %_ZL14lodepng_strlenPKc.exit.i
  %.not.i.i.i = icmp eq ptr %.0.i.i, %1
  br i1 %.not.i.i.i, label %24, label %.lr.ph.preheader.i.i.i

.lr.ph.preheader.i.i.i:                           ; preds = %23
  tail call void @llvm.memcpy.p0.p0.i64(ptr nonnull align 1 %21, ptr readonly align 1 %1, i64 %19, i1 false), !tbaa !18, !alias.scope !241
  br label %24

24:                                               ; preds = %.lr.ph.preheader.i.i.i, %23
  %25 = getelementptr inbounds nuw i8, ptr %21, i64 %19
  store i8 0, ptr %25, align 1, !tbaa !18
  %26 = getelementptr inbounds nuw i8, ptr %0, i64 256
  store ptr %21, ptr %26, align 8, !tbaa !240
  %27 = zext i32 %3 to i64
  %28 = tail call noalias noundef ptr @malloc(i64 noundef %27) #27
  %29 = getelementptr inbounds nuw i8, ptr %0, i64 264
  store ptr %28, ptr %29, align 8, !tbaa !238
  %.not19 = icmp eq ptr %28, null
  br i1 %.not19, label %30, label %_ZL14lodepng_memcpyPvPKvm.exit

30:                                               ; preds = %24
  tail call void @free(ptr noundef nonnull %21) #28
  br label %32

_ZL14lodepng_memcpyPvPKvm.exit:                   ; preds = %24
  tail call void @llvm.memcpy.p0.p0.i64(ptr nonnull align 1 %28, ptr readonly align 1 %2, i64 %27, i1 false), !tbaa !18, !alias.scope !245
  %31 = getelementptr inbounds nuw i8, ptr %0, i64 272
  store i32 %3, ptr %31, align 8, !tbaa !239
  store i32 1, ptr %5, align 4, !tbaa !237
  br label %32

32:                                               ; preds = %_ZL12alloc_stringPKc.exit.thread, %13, %_ZL14lodepng_memcpyPvPKvm.exit, %30
  %.0 = phi i32 [ 0, %_ZL14lodepng_memcpyPvPKvm.exit ], [ 83, %30 ], [ 100, %13 ], [ 83, %_ZL12alloc_stringPKc.exit.thread ]
  ret i32 %.0
}